target datalayout = "e-m:e-p270:32:32-p271:32:32-p272:64:64-i64:64-i128:128-f80:128-n8:16:32:64-S128"
target triple = "x86_64-pc-linux-gnu"

%struct.psa_key_attributes_s = type { i16, i16, i32, %struct.psa_key_policy_s, i32 }
%struct.psa_key_policy_s = type { i32, i32, i32 }

; Function Attrs: inlinehint nounwind uwtable
define internal zeroext i8 @mbedtls_md_get_size_from_type(i32 noundef %0) #7 {
  %2 = alloca i32, align 4
  store i32 %0, ptr %2, align 4, !tbaa !17
  %3 = load i32, ptr %2, align 4, !tbaa !17
  %4 = call ptr @mbedtls_md_info_from_type(i32 noundef %3)
  %5 = call zeroext i8 @mbedtls_md_get_size(ptr noundef %4)
  ret i8 %5
}

; Function Attrs: inlinehint nounwind uwtable
define internal i32 @mbedtls_md_type_from_psa_alg(i32 noundef %0) #7 {
  %2 = alloca i32, align 4
  store i32 %0, ptr %2, align 4, !tbaa !17
  %3 = load i32, ptr %2, align 4, !tbaa !17
  %4 = and i32 %3, 255
  ret i32 %4
}

; Function Attrs: nounwind uwtable
define internal i32 @psa_rsa_decode_md_type(i32 noundef %0, i64 noundef %1, ptr noundef %2) #0 {
  %4 = alloca i32, align 4
  %5 = alloca i32, align 4
  %6 = alloca i64, align 8
  %7 = alloca ptr, align 8
  %8 = alloca i32, align 4
  %9 = alloca i32, align 4
  store i32 %0, ptr %5, align 4, !tbaa !17
  store i64 %1, ptr %6, align 8, !tbaa !10
  store ptr %2, ptr %7, align 8, !tbaa !32
  call void @llvm.lifetime.start.p0(i64 4, ptr %8) #8
  %10 = load i32, ptr %5, align 4, !tbaa !17
  %11 = and i32 %10, -256
  %12 = icmp eq i32 %11, 100664064
  br i1 %12, label %35, label %13

13:                                               ; preds = %3
  %14 = load i32, ptr %5, align 4, !tbaa !17
  %15 = and i32 %14, -256
  %16 = icmp eq i32 %15, 100668160
  br i1 %16, label %35, label %17

17:                                               ; preds = %13
  %18 = load i32, ptr %5, align 4, !tbaa !17
  %19 = and i32 %18, -256
  %20 = icmp eq i32 %19, 100663808
  br i1 %20, label %35, label %21

21:                                               ; preds = %17
  %22 = load i32, ptr %5, align 4, !tbaa !17
  %23 = and i32 %22, -256
  %24 = and i32 %23, -257
  %25 = icmp eq i32 %24, 100664832
  br i1 %25, label %35, label %26

26:                                               ; preds = %21
  %27 = load i32, ptr %5, align 4, !tbaa !17
  %28 = and i32 %27, -256
  %29 = icmp eq i32 %28, 100665600
  br i1 %29, label %35, label %30

30:                                               ; preds = %26
  %31 = load i32, ptr %5, align 4, !tbaa !17
  %32 = and i32 %31, -256
  %33 = and i32 %32, -257
  %34 = icmp eq i32 %33, 100664320
  br i1 %34, label %35, label %43

35:                                               ; preds = %30, %26, %21, %17, %13, %3
  %36 = load i32, ptr %5, align 4, !tbaa !17
  %37 = and i32 %36, 255
  %38 = icmp ne i32 %37, 0
  br i1 %38, label %39, label %43

39:                                               ; preds = %35
  %40 = load i32, ptr %5, align 4, !tbaa !17
  %41 = and i32 %40, 255
  %42 = or i32 %41, 33554432
  br label %44

43:                                               ; preds = %35, %30
  br label %44

44:                                               ; preds = %43, %39
  %45 = phi i32 [ %42, %39 ], [ 0, %43 ]
  store i32 %45, ptr %8, align 4, !tbaa !17
  %46 = load i32, ptr %8, align 4, !tbaa !17
  %47 = call i32 @mbedtls_md_type_from_psa_alg(i32 noundef %46)
  %48 = load ptr, ptr %7, align 8, !tbaa !32
  store i32 %47, ptr %48, align 4, !tbaa !17
  %49 = load i64, ptr %6, align 8, !tbaa !10
  %50 = icmp ugt i64 %49, 4294967295
  br i1 %50, label %51, label %52

51:                                               ; preds = %44
  store i32 -135, ptr %4, align 4
  store i32 1, ptr %9, align 4
  br label %70

52:                                               ; preds = %44
  %53 = load i32, ptr %5, align 4, !tbaa !17
  %54 = icmp ne i32 %53, 100663808
  br i1 %54, label %55, label %69

55:                                               ; preds = %52
  %56 = load ptr, ptr %7, align 8, !tbaa !32
  %57 = load i32, ptr %56, align 4, !tbaa !17
  %58 = icmp eq i32 %57, 0
  br i1 %58, label %59, label %60

59:                                               ; preds = %55
  store i32 -134, ptr %4, align 4
  store i32 1, ptr %9, align 4
  br label %70

60:                                               ; preds = %55
  %61 = load ptr, ptr %7, align 8, !tbaa !32
  %62 = load i32, ptr %61, align 4, !tbaa !17
  %63 = call zeroext i8 @mbedtls_md_get_size_from_type(i32 noundef %62)
  %64 = zext i8 %63 to i64
  %65 = load i64, ptr %6, align 8, !tbaa !10
  %66 = icmp ne i64 %64, %65
  br i1 %66, label %67, label %68

67:                                               ; preds = %60
  store i32 -135, ptr %4, align 4
  store i32 1, ptr %9, align 4
  br label %70

68:                                               ; preds = %60
  br label %69

69:                                               ; preds = %68, %52
  store i32 0, ptr %4, align 4
  store i32 1, ptr %9, align 4
  br label %70

70:                                               ; preds = %69, %67, %59, %51
  call void @llvm.lifetime.end.p0(i64 4, ptr %8) #8
  %71 = load i32, ptr %4, align 4
  ret i32 %71
}

; Function Attrs: nounwind uwtable
define hidden i32 @mbedtls_psa_rsa_sign_hash(ptr noundef %0, ptr noundef %1, i64 noundef %2, i32 noundef %3, ptr noundef %4, i64 noundef %5, ptr noundef %6, i64 noundef %7, ptr noundef %8) #0 {
  %10 = alloca ptr, align 8
  %11 = alloca ptr, align 8
  %12 = alloca i64, align 8
  %13 = alloca i32, align 4
  %14 = alloca ptr, align 8
  %15 = alloca i64, align 8
  %16 = alloca ptr, align 8
  %17 = alloca i64, align 8
  %18 = alloca ptr, align 8
  %19 = alloca i32, align 4
  %20 = alloca ptr, align 8
  %21 = alloca i32, align 4
  %22 = alloca i32, align 4
  store ptr %0, ptr %10, align 8, !tbaa !19
  store ptr %1, ptr %11, align 8, !tbaa !7
  store i64 %2, ptr %12, align 8, !tbaa !10
  store i32 %3, ptr %13, align 4, !tbaa !17
  store ptr %4, ptr %14, align 8, !tbaa !7
  store i64 %5, ptr %15, align 8, !tbaa !10
  store ptr %6, ptr %16, align 8, !tbaa !7
  store i64 %7, ptr %17, align 8, !tbaa !10
  store ptr %8, ptr %18, align 8, !tbaa !21
  call void @llvm.lifetime.start.p0(i64 4, ptr %19) #8
  store i32 -151, ptr %19, align 4, !tbaa !17
  call void @llvm.lifetime.start.p0(i64 8, ptr %20) #8
  store ptr null, ptr %20, align 8, !tbaa !15
  call void @llvm.lifetime.start.p0(i64 4, ptr %21) #8
  store i32 -110, ptr %21, align 4, !tbaa !17
  call void @llvm.lifetime.start.p0(i64 4, ptr %22) #8
  %23 = load ptr, ptr %10, align 8, !tbaa !19
  %24 = getelementptr inbounds nuw %struct.psa_key_attributes_s, ptr %23, i32 0, i32 0
  %25 = load i16, ptr %24, align 4, !tbaa !23
  %26 = load ptr, ptr %11, align 8, !tbaa !7
  %27 = load i64, ptr %12, align 8, !tbaa !10
  %28 = call i32 @mbedtls_psa_rsa_load_representation(i16 noundef zeroext %25, ptr noundef %26, i64 noundef %27, ptr noundef %20)
  store i32 %28, ptr %19, align 4, !tbaa !17
  %29 = load i32, ptr %19, align 4, !tbaa !17
  %30 = icmp ne i32 %29, 0
  br i1 %30, label %31, label %32

31:                                               ; preds = %9
  br label %97

32:                                               ; preds = %9
  %33 = load i32, ptr %13, align 4, !tbaa !17
  %34 = load i64, ptr %15, align 8, !tbaa !10
  %35 = call i32 @psa_rsa_decode_md_type(i32 noundef %33, i64 noundef %34, ptr noundef %22)
  store i32 %35, ptr %19, align 4, !tbaa !17
  %36 = load i32, ptr %19, align 4, !tbaa !17
  %37 = icmp ne i32 %36, 0
  br i1 %37, label %38, label %39

38:                                               ; preds = %32
  br label %97

39:                                               ; preds = %32
  %40 = load i64, ptr %17, align 8, !tbaa !10
  %41 = load ptr, ptr %20, align 8, !tbaa !15
  %42 = call i64 @mbedtls_rsa_get_len(ptr noundef %41)
  %43 = icmp ult i64 %40, %42
  br i1 %43, label %44, label %45

44:                                               ; preds = %39
  store i32 -138, ptr %19, align 4, !tbaa !17
  br label %97

45:                                               ; preds = %39
  %46 = load i32, ptr %13, align 4, !tbaa !17
  %47 = and i32 %46, -256
  %48 = icmp eq i32 %47, 100663808
  br i1 %48, label %49, label %63

49:                                               ; preds = %45
  %50 = load ptr, ptr %20, align 8, !tbaa !15
  %51 = call i32 @mbedtls_rsa_set_padding(ptr noundef %50, i32 noundef 0, i32 noundef 0)
  store i32 %51, ptr %21, align 4, !tbaa !17
  %52 = load i32, ptr %21, align 4, !tbaa !17
  %53 = icmp eq i32 %52, 0
  br i1 %53, label %54, label %62

54:                                               ; preds = %49
  %55 = load ptr, ptr %20, align 8, !tbaa !15
  %56 = load i32, ptr %22, align 4, !tbaa !17
  %57 = load i64, ptr %15, align 8, !tbaa !10
  %58 = trunc i64 %57 to i32
  %59 = load ptr, ptr %14, align 8, !tbaa !7
  %60 = load ptr, ptr %16, align 8, !tbaa !7
  %61 = call i32 @mbedtls_rsa_pkcs1_sign(ptr noundef %55, ptr noundef @mbedtls_psa_get_random, ptr noundef null, i32 noundef %56, i32 noundef %58, ptr noundef %59, ptr noundef %60)
  store i32 %61, ptr %21, align 4, !tbaa !17
  br label %62

62:                                               ; preds = %54, %49
  br label %87

63:                                               ; preds = %45
  %64 = load i32, ptr %13, align 4, !tbaa !17
  %65 = and i32 %64, -256
  %66 = icmp eq i32 %65, 100664064
  br i1 %66, label %71, label %67

67:                                               ; preds = %63
  %68 = load i32, ptr %13, align 4, !tbaa !17
  %69 = and i32 %68, -256
  %70 = icmp eq i32 %69, 100668160
  br i1 %70, label %71, label %85

71:                                               ; preds = %67, %63
  %72 = load ptr, ptr %20, align 8, !tbaa !15
  %73 = load i32, ptr %22, align 4, !tbaa !17
  %74 = call i32 @mbedtls_rsa_set_padding(ptr noundef %72, i32 noundef 1, i32 noundef %73)
  store i32 %74, ptr %21, align 4, !tbaa !17
  %75 = load i32, ptr %21, align 4, !tbaa !17
  %76 = icmp eq i32 %75, 0
  br i1 %76, label %77, label %84

77:                                               ; preds = %71
  %78 = load ptr, ptr %20, align 8, !tbaa !15
  %79 = load i64, ptr %15, align 8, !tbaa !10
  %80 = trunc i64 %79 to i32
  %81 = load ptr, ptr %14, align 8, !tbaa !7
  %82 = load ptr, ptr %16, align 8, !tbaa !7
  %83 = call i32 @mbedtls_rsa_rsassa_pss_sign(ptr noundef %78, ptr noundef @mbedtls_psa_get_random, ptr noundef null, i32 noundef 0, i32 noundef %80, ptr noundef %81, ptr noundef %82)
  store i32 %83, ptr %21, align 4, !tbaa !17
  br label %84

84:                                               ; preds = %77, %71
  br label %86

85:                                               ; preds = %67
  store i32 -135, ptr %19, align 4, !tbaa !17
  br label %97

86:                                               ; preds = %84
  br label %87

87:                                               ; preds = %86, %62
  %88 = load i32, ptr %21, align 4, !tbaa !17
  %89 = icmp eq i32 %88, 0
  br i1 %89, label %90, label %94

90:                                               ; preds = %87
  %91 = load ptr, ptr %20, align 8, !tbaa !15
  %92 = call i64 @mbedtls_rsa_get_len(ptr noundef %91)
  %93 = load ptr, ptr %18, align 8, !tbaa !21
  store i64 %92, ptr %93, align 8, !tbaa !10
  br label %94

94:                                               ; preds = %90, %87
  %95 = load i32, ptr %21, align 4, !tbaa !17
  %96 = call i32 @mbedtls_to_psa_error(i32 noundef %95)
  store i32 %96, ptr %19, align 4, !tbaa !17
  br label %97

97:                                               ; preds = %94, %85, %44, %38, %31
  %98 = load ptr, ptr %20, align 8, !tbaa !15
  call void @mbedtls_rsa_free(ptr noundef %98)
  %99 = load ptr, ptr %20, align 8, !tbaa !15
  call void @free(ptr noundef %99) #8
  %100 = load i32, ptr %19, align 4, !tbaa !17
  call void @llvm.lifetime.end.p0(i64 4, ptr %22) #8
  call void @llvm.lifetime.end.p0(i64 4, ptr %21) #8
  call void @llvm.lifetime.end.p0(i64 8, ptr %20) #8
  call void @llvm.lifetime.end.p0(i64 4, ptr %19) #8
  ret i32 %100
}