; Function Attrs: nounwind uwtable
define hidden i32 @mbedtls_psa_rsa_sign_hash(ptr noundef readonly captures(none) %0, ptr noundef %1, i64 noundef %2, i32 noundef %3, ptr noundef %4, i64 noundef %5, ptr noundef %6, i64 noundef %7, ptr noundef writeonly captures(none) %8) local_unnamed_addr #0 {
  %10 = alloca ptr, align 8
  call void @llvm.lifetime.start.p0(i64 8, ptr nonnull %10) #9
  %11 = load i16, ptr %0, align 4, !tbaa !8
  %12 = call i32 @mbedtls_psa_rsa_load_representation(i16 noundef zeroext %11, ptr noundef %1, i64 noundef %2, ptr noundef nonnull %10)
  %.not = icmp eq i32 %12, 0
  br i1 %.not, label %13, label %psa_rsa_decode_md_type.exit.thread

13:                                               ; preds = %9
  %14 = and i32 %3, -256
  switch i32 %14, label %switch.early.test.i [
    i32 100664064, label %16
    i32 100668160, label %16
    i32 100663808, label %16
    i32 100665600, label %16
  ]

switch.early.test.i:                              ; preds = %13
  %15 = and i32 %3, -512
  switch i32 %15, label %18 [
    i32 100664832, label %16
    i32 100664320, label %16
  ]

16:                                               ; preds = %switch.early.test.i, %switch.early.test.i, %13, %13, %13, %13
  %17 = and i32 %3, 255
  br label %18

18:                                               ; preds = %16, %switch.early.test.i
  %19 = phi i32 [ 0, %switch.early.test.i ], [ %17, %16 ]
  %20 = icmp ugt i64 %5, 4294967295
  br i1 %20, label %psa_rsa_decode_md_type.exit.thread, label %21

21:                                               ; preds = %18
  %.not20.i = icmp eq i32 %3, 100663808
  br i1 %.not20.i, label %psa_rsa_decode_md_type.exit, label %22

22:                                               ; preds = %21
  %23 = icmp eq i32 %19, 0
  br i1 %23, label %psa_rsa_decode_md_type.exit.thread, label %24

24:                                               ; preds = %22
  %25 = tail call ptr @mbedtls_md_info_from_type(i32 noundef range(i32 1, 0) %19) #9
  %26 = tail call zeroext i8 @mbedtls_md_get_size(ptr noundef %25) #9
  %27 = zext i8 %26 to i64
  %.not21.i = icmp eq i64 %5, %27
  br i1 %.not21.i, label %psa_rsa_decode_md_type.exit, label %psa_rsa_decode_md_type.exit.thread

psa_rsa_decode_md_type.exit:                      ; preds = %24, %21
  %28 = load ptr, ptr %10, align 8, !tbaa !3
  %29 = tail call i64 @mbedtls_rsa_get_len(ptr noundef %28) #9
  %30 = icmp ult i64 %7, %29
  br i1 %30, label %psa_rsa_decode_md_type.exit.thread, label %31

31:                                               ; preds = %psa_rsa_decode_md_type.exit
  switch i32 %14, label %psa_rsa_decode_md_type.exit.thread [
    i32 100663808, label %32
    i32 100664064, label %38
    i32 100668160, label %38
  ]

32:                                               ; preds = %31
  %33 = tail call i32 @mbedtls_rsa_set_padding(ptr noundef %28, i32 noundef 0, i32 noundef 0) #9
  %34 = icmp eq i32 %33, 0
  br i1 %34, label %35, label %.thread

35:                                               ; preds = %32
  %36 = trunc nuw i64 %5 to i32
  %37 = tail call i32 @mbedtls_rsa_pkcs1_sign(ptr noundef %28, ptr noundef nonnull @mbedtls_psa_get_random, ptr noundef null, i32 noundef %19, i32 noundef %36, ptr noundef %4, ptr noundef %6) #9
  br label %44

38:                                               ; preds = %31, %31
  %39 = tail call i32 @mbedtls_rsa_set_padding(ptr noundef %28, i32 noundef 1, i32 noundef %19) #9
  %40 = icmp eq i32 %39, 0
  br i1 %40, label %41, label %.thread

41:                                               ; preds = %38
  %42 = trunc nuw i64 %5 to i32
  %43 = tail call i32 @mbedtls_rsa_rsassa_pss_sign(ptr noundef %28, ptr noundef nonnull @mbedtls_psa_get_random, ptr noundef null, i32 noundef 0, i32 noundef %42, ptr noundef %4, ptr noundef %6) #9
  br label %44

44:                                               ; preds = %41, %35
  %.0 = phi i32 [ %37, %35 ], [ %43, %41 ]
  %45 = icmp eq i32 %.0, 0
  br i1 %45, label %46, label %.thread

46:                                               ; preds = %44
  %47 = tail call i64 @mbedtls_rsa_get_len(ptr noundef %28) #9
  store i64 %47, ptr %8, align 8, !tbaa !13
  br label %.thread

.thread:                                          ; preds = %38, %32, %46, %44
  %.033 = phi i32 [ 0, %46 ], [ %.0, %44 ], [ %39, %38 ], [ %33, %32 ]
  %48 = tail call i32 @mbedtls_to_psa_error(i32 noundef %.033) #9
  br label %psa_rsa_decode_md_type.exit.thread

psa_rsa_decode_md_type.exit.thread:               ; preds = %24, %22, %18, %31, %psa_rsa_decode_md_type.exit, %9, %.thread
  %.022 = phi i32 [ %12, %9 ], [ %48, %.thread ], [ -138, %psa_rsa_decode_md_type.exit ], [ -135, %31 ], [ -135, %24 ], [ -134, %22 ], [ -135, %18 ]
  %49 = load ptr, ptr %10, align 8, !tbaa !3
  tail call void @mbedtls_rsa_free(ptr noundef %49) #9
  tail call void @free(ptr noundef %49) #9
  call void @llvm.lifetime.end.p0(i64 8, ptr nonnull %10) #9
  ret i32 %.022
}